target datalayout = "e-m:e-p270:32:32-p271:32:32-p272:64:64-i64:64-i128:128-f80:128-n8:16:32:64-S128"
target triple = "x86_64-pc-linux-gnu"

%struct.numeric = type { i32, i32, i32, i32, i32, ptr, ptr }

; Function Attrs: nounwind uwtable
define i32 @PGTYPESnumeric_cmp(ptr noundef %0, ptr noundef %1) #0 {
  %3 = alloca i32, align 4
  %4 = alloca ptr, align 8
  %5 = alloca ptr, align 8
  store ptr %0, ptr %4, align 8
  store ptr %1, ptr %5, align 8
  %6 = load ptr, ptr %4, align 8
  %7 = getelementptr inbounds nuw %struct.numeric, ptr %6, i32 0, i32 4
  %8 = load i32, ptr %7, align 8
  %9 = icmp eq i32 %8, 0
  br i1 %9, label %10, label %19

10:                                               ; preds = %2
  %11 = load ptr, ptr %5, align 8
  %12 = getelementptr inbounds nuw %struct.numeric, ptr %11, i32 0, i32 4
  %13 = load i32, ptr %12, align 8
  %14 = icmp eq i32 %13, 0
  br i1 %14, label %15, label %19

15:                                               ; preds = %10
  %16 = load ptr, ptr %4, align 8
  %17 = load ptr, ptr %5, align 8
  %18 = call i32 @cmp_abs(ptr noundef %16, ptr noundef %17)
  store i32 %18, ptr %3, align 4
  br label %57

19:                                               ; preds = %10, %2
  %20 = load ptr, ptr %4, align 8
  %21 = getelementptr inbounds nuw %struct.numeric, ptr %20, i32 0, i32 4
  %22 = load i32, ptr %21, align 8
  %23 = icmp eq i32 %22, 16384
  br i1 %23, label %24, label %33

24:                                               ; preds = %19
  %25 = load ptr, ptr %5, align 8
  %26 = getelementptr inbounds nuw %struct.numeric, ptr %25, i32 0, i32 4
  %27 = load i32, ptr %26, align 8
  %28 = icmp eq i32 %27, 16384
  br i1 %28, label %29, label %33

29:                                               ; preds = %24
  %30 = load ptr, ptr %5, align 8
  %31 = load ptr, ptr %4, align 8
  %32 = call i32 @cmp_abs(ptr noundef %30, ptr noundef %31)
  store i32 %32, ptr %3, align 4
  br label %57

33:                                               ; preds = %24, %19
  %34 = load ptr, ptr %4, align 8
  %35 = getelementptr inbounds nuw %struct.numeric, ptr %34, i32 0, i32 4
  %36 = load i32, ptr %35, align 8
  %37 = icmp eq i32 %36, 0
  br i1 %37, label %38, label %44

38:                                               ; preds = %33
  %39 = load ptr, ptr %5, align 8
  %40 = getelementptr inbounds nuw %struct.numeric, ptr %39, i32 0, i32 4
  %41 = load i32, ptr %40, align 8
  %42 = icmp eq i32 %41, 16384
  br i1 %42, label %43, label %44

43:                                               ; preds = %38
  store i32 1, ptr %3, align 4
  br label %57

44:                                               ; preds = %38, %33
  %45 = load ptr, ptr %4, align 8
  %46 = getelementptr inbounds nuw %struct.numeric, ptr %45, i32 0, i32 4
  %47 = load i32, ptr %46, align 8
  %48 = icmp eq i32 %47, 16384
  br i1 %48, label %49, label %55

49:                                               ; preds = %44
  %50 = load ptr, ptr %5, align 8
  %51 = getelementptr inbounds nuw %struct.numeric, ptr %50, i32 0, i32 4
  %52 = load i32, ptr %51, align 8
  %53 = icmp eq i32 %52, 0
  br i1 %53, label %54, label %55

54:                                               ; preds = %49
  store i32 -1, ptr %3, align 4
  br label %57

55:                                               ; preds = %49, %44
  %56 = call ptr @__errno_location() #9
  store i32 302, ptr %56, align 4
  store i32 2147483647, ptr %3, align 4
  br label %57

57:                                               ; preds = %55, %54, %43, %29, %15
  %58 = load i32, ptr %3, align 4
  ret i32 %58
}