; Function Attrs: nofree nosync nounwind memory(readwrite, inaccessiblemem: none) uwtable
define range(i32 -1, -2147483648) i32 @PGTYPESnumeric_cmp(ptr noundef readonly captures(none) %0, ptr noundef readonly captures(none) %1) local_unnamed_addr #10 {
  %3 = getelementptr inbounds nuw i8, ptr %0, i64 16
  %4 = load i32, ptr %3, align 8
  switch i32 %4, label %.thread12 [
    i32 0, label %5
    i32 16384, label %10
  ]

5:                                                ; preds = %2
  %6 = getelementptr inbounds nuw i8, ptr %1, i64 16
  %7 = load i32, ptr %6, align 8
  switch i32 %7, label %.thread12 [
    i32 0, label %8
    i32 16384, label %16
  ]

8:                                                ; preds = %5
  %9 = tail call fastcc i32 @cmp_abs(ptr noundef nonnull %0, ptr noundef nonnull %1)
  br label %16

10:                                               ; preds = %2
  %11 = getelementptr inbounds nuw i8, ptr %1, i64 16
  %12 = load i32, ptr %11, align 8
  switch i32 %12, label %.thread12 [
    i32 16384, label %13
    i32 0, label %16
  ]

13:                                               ; preds = %10
  %14 = tail call fastcc i32 @cmp_abs(ptr noundef nonnull %1, ptr noundef nonnull %0)
  br label %16

.thread12:                                        ; preds = %10, %5, %2
  %15 = tail call ptr @__errno_location() #15
  store i32 302, ptr %15, align 4
  br label %16

16:                                               ; preds = %10, %5, %.thread12, %13, %8
  %.0 = phi i32 [ %9, %8 ], [ %14, %13 ], [ 2147483647, %.thread12 ], [ 1, %5 ], [ -1, %10 ]
  ret i32 %.0
}